; Function Attrs: mustprogress uwtable
define hidden void @_ZN3p2t5Sweep9EdgeEventERNS_12SweepContextEPNS_4EdgeEPNS_4NodeE(ptr noundef nonnull align 8 dereferenceable(24) %0, ptr noundef nonnull align 8 dereferenceable(200) initializes((64, 73)) %1, ptr noundef %2, ptr noundef readonly captures(none) %3) local_unnamed_addr #2 align 2 {
  %5 = getelementptr inbounds nuw i8, ptr %1, i64 64
  store ptr %2, ptr %5, align 8
  %6 = load ptr, ptr %2, align 8
  %7 = load double, ptr %6, align 8
  %8 = getelementptr inbounds nuw i8, ptr %2, i64 8
  %9 = load ptr, ptr %8, align 8
  %10 = load double, ptr %9, align 8
  %11 = fcmp ogt double %7, %10
  %12 = getelementptr inbounds nuw i8, ptr %1, i64 72
  %13 = zext i1 %11 to i8
  store i8 %13, ptr %12, align 8
  %14 = getelementptr inbounds nuw i8, ptr %3, i64 8
  %15 = load ptr, ptr %14, align 8
  %16 = load ptr, ptr %2, align 8
  %17 = load ptr, ptr %8, align 8
  %18 = tail call noundef i32 @_ZN3p2t8Triangle9EdgeIndexEPKNS_5PointES3_(ptr noundef nonnull align 8 dereferenceable(57) %15, ptr noundef nonnull align 8 dereferenceable(40) %16, ptr noundef nonnull align 8 dereferenceable(40) %17)
  %.not.i.not = icmp eq i32 %18, -1
  br i1 %.not.i.not, label %_ZN3p2t5Sweep20IsEdgeSideOfTriangleERNS_8TriangleERNS_5PointES4_.exit, label %19

19:                                               ; preds = %4
  tail call void @_ZN3p2t8Triangle19MarkConstrainedEdgeEi(ptr noundef nonnull align 8 dereferenceable(57) %15, i32 noundef %18)
  %20 = getelementptr inbounds nuw i8, ptr %15, i64 32
  %21 = sext i32 %18 to i64
  %22 = getelementptr inbounds [3 x ptr], ptr %20, i64 0, i64 %21
  %23 = load ptr, ptr %22, align 8
  %.not14.i = icmp eq ptr %23, null
  br i1 %.not14.i, label %_ZN3p2t5Sweep20IsEdgeSideOfTriangleERNS_8TriangleERNS_5PointES4_.exit.thread, label %24

24:                                               ; preds = %19
  tail call void @_ZN3p2t8Triangle19MarkConstrainedEdgeEPNS_5PointES2_(ptr noundef nonnull align 8 dereferenceable(57) %23, ptr noundef nonnull align 8 dereferenceable(40) %16, ptr noundef nonnull align 8 dereferenceable(40) %17)
  br label %_ZN3p2t5Sweep20IsEdgeSideOfTriangleERNS_8TriangleERNS_5PointES4_.exit.thread

_ZN3p2t5Sweep20IsEdgeSideOfTriangleERNS_8TriangleERNS_5PointES4_.exit: ; preds = %4
  tail call void @_ZN3p2t5Sweep13FillEdgeEventERNS_12SweepContextEPNS_4EdgeEPNS_4NodeE(ptr noundef nonnull align 8 dereferenceable(24) %0, ptr noundef nonnull align 8 dereferenceable(200) %1, ptr noundef nonnull %2, ptr noundef nonnull %3)
  %25 = load ptr, ptr %2, align 8
  %26 = load ptr, ptr %8, align 8
  %27 = load ptr, ptr %14, align 8
  tail call void @_ZN3p2t5Sweep9EdgeEventERNS_12SweepContextERNS_5PointES4_PNS_8TriangleES4_(ptr noundef nonnull align 8 dereferenceable(24) %0, ptr noundef nonnull align 8 dereferenceable(200) %1, ptr noundef nonnull align 8 dereferenceable(40) %25, ptr noundef nonnull align 8 dereferenceable(40) %26, ptr noundef %27, ptr noundef nonnull align 8 dereferenceable(40) %26)
  br label %_ZN3p2t5Sweep20IsEdgeSideOfTriangleERNS_8TriangleERNS_5PointES4_.exit.thread

_ZN3p2t5Sweep20IsEdgeSideOfTriangleERNS_8TriangleERNS_5PointES4_.exit.thread: ; preds = %24, %19, %_ZN3p2t5Sweep20IsEdgeSideOfTriangleERNS_8TriangleERNS_5PointES4_.exit
  ret void
}